; Function Attrs: mustprogress nounwind uwtable
define internal void @_ZN12_GLOBAL__N_120X86FastPreTileConfigD2Ev(ptr noundef nonnull align 8 dereferenceable(248) initializes((0, 8)) %0) unnamed_addr #0 align 2 {
  store ptr getelementptr inbounds nuw inrange(-16, 176) (i8, ptr @_ZTVN12_GLOBAL__N_120X86FastPreTileConfigE, i64 16), ptr %0, align 8
  %2 = getelementptr inbounds nuw i8, ptr %0, i64 176
  %3 = tail call noundef i64 @_ZNK4llvm15SmallVectorBaseIjE4sizeEv(ptr noundef nonnull align 8 dereferenceable(68) %2) #15
  %4 = load ptr, ptr %2, align 8
  %5 = getelementptr inbounds nuw i8, ptr %0, i64 192
  %6 = icmp eq ptr %4, %5
  br i1 %6, label %_ZN4llvm9BitVectorD2Ev.exit, label %7

7:                                                ; preds = %1
  tail call void @free(ptr noundef %4) #15
  br label %_ZN4llvm9BitVectorD2Ev.exit

_ZN4llvm9BitVectorD2Ev.exit:                      ; preds = %1, %7
  %8 = getelementptr inbounds nuw i8, ptr %0, i64 152
  %9 = tail call noundef i64 @_ZNK4llvm15SmallVectorBaseIjE4sizeEv(ptr noundef nonnull align 8 dereferenceable(21) %8) #15
  %10 = load ptr, ptr %8, align 8
  %11 = getelementptr inbounds nuw i8, ptr %0, i64 168
  %12 = icmp eq ptr %10, %11
  br i1 %12, label %_ZN4llvm10IndexedMapIiNS_20VirtReg2IndexFunctorEED2Ev.exit, label %13

13:                                               ; preds = %_ZN4llvm9BitVectorD2Ev.exit
  tail call void @free(ptr noundef %10) #15
  br label %_ZN4llvm10IndexedMapIiNS_20VirtReg2IndexFunctorEED2Ev.exit

_ZN4llvm10IndexedMapIiNS_20VirtReg2IndexFunctorEED2Ev.exit: ; preds = %_ZN4llvm9BitVectorD2Ev.exit, %13
  %14 = getelementptr inbounds nuw i8, ptr %0, i64 128
  %.val = load ptr, ptr %14, align 8
  %15 = getelementptr inbounds nuw i8, ptr %0, i64 144
  %.val1 = load i32, ptr %15, align 8
  %16 = zext i32 %.val1 to i64
  %17 = mul nuw nsw i64 %16, 24
  tail call void @_ZN4llvm17deallocate_bufferEPvmm(ptr noundef %.val, i64 noundef %17, i64 noundef 8) #15
  tail call void @_ZN4llvm4PassD2Ev(ptr noundef nonnull align 8 dereferenceable(56) %0) #15
  ret void
}